target datalayout = "e-m:e-p270:32:32-p271:32:32-p272:64:64-i64:64-i128:128-f80:128-n8:16:32:64-S128"
target triple = "x86_64-pc-linux-gnu"

%"class.tinyxml2::StrPair" = type { i32, ptr, ptr }

; Function Attrs: noinline noreturn nounwind uwtable
define linkonce_odr hidden void @__clang_call_terminate(ptr noundef %0) #1 comdat {
  %2 = call ptr @__cxa_begin_catch(ptr %0) #18
  call void @_ZSt9terminatev() #16
  unreachable
}

; Function Attrs: mustprogress nounwind uwtable
define void @_ZN8tinyxml27StrPair5ResetEv(ptr noundef nonnull align 8 dereferenceable(24) %0) #0 align 2 {
  %2 = alloca ptr, align 8
  store ptr %0, ptr %2, align 8, !tbaa !3
  %3 = load ptr, ptr %2, align 8
  %4 = getelementptr inbounds nuw %"class.tinyxml2::StrPair", ptr %3, i32 0, i32 0
  %5 = load i32, ptr %4, align 8, !tbaa !8
  %6 = and i32 %5, 512
  %7 = icmp ne i32 %6, 0
  br i1 %7, label %8, label %14

8:                                                ; preds = %1
  %9 = getelementptr inbounds nuw %"class.tinyxml2::StrPair", ptr %3, i32 0, i32 1
  %10 = load ptr, ptr %9, align 8, !tbaa !12
  %11 = icmp eq ptr %10, null
  br i1 %11, label %13, label %12

12:                                               ; preds = %8
  call void @_ZdaPv(ptr noundef %10) #17
  br label %13

13:                                               ; preds = %12, %8
  br label %14

14:                                               ; preds = %13, %1
  %15 = getelementptr inbounds nuw %"class.tinyxml2::StrPair", ptr %3, i32 0, i32 0
  store i32 0, ptr %15, align 8, !tbaa !8
  %16 = getelementptr inbounds nuw %"class.tinyxml2::StrPair", ptr %3, i32 0, i32 1
  store ptr null, ptr %16, align 8, !tbaa !12
  %17 = getelementptr inbounds nuw %"class.tinyxml2::StrPair", ptr %3, i32 0, i32 2
  store ptr null, ptr %17, align 8, !tbaa !13
  ret void
}

; Function Attrs: mustprogress nounwind uwtable
define void @_ZN8tinyxml27StrPairD2Ev(ptr noundef nonnull align 8 dereferenceable(24) %0) unnamed_addr #0 align 2 personality ptr @__gxx_personality_v0 {
  %2 = alloca ptr, align 8
  store ptr %0, ptr %2, align 8, !tbaa !3
  %3 = load ptr, ptr %2, align 8
  invoke void @_ZN8tinyxml27StrPair5ResetEv(ptr noundef nonnull align 8 dereferenceable(24) %3)
          to label %4 unwind label %5

4:                                                ; preds = %1
  ret void

5:                                                ; preds = %1
  %6 = landingpad { ptr, i32 }
          catch ptr null
  %7 = extractvalue { ptr, i32 } %6, 0
  call void @__clang_call_terminate(ptr %7) #16
  unreachable
}