; Function Attrs: mustprogress nounwind uwtable
define void @_ZN8tinyxml27StrPairD2Ev(ptr noundef nonnull align 8 captures(none) dereferenceable(24) initializes((16, 24)) %0) unnamed_addr #0 align 2 personality ptr @__gxx_personality_v0 {
  %2 = load i32, ptr %0, align 8, !tbaa !3
  %3 = and i32 %2, 512
  %.not.i = icmp eq i32 %3, 0
  br i1 %.not.i, label %_ZN8tinyxml27StrPair5ResetEv.exit, label %4

4:                                                ; preds = %1
  %5 = getelementptr inbounds nuw i8, ptr %0, i64 8
  %6 = load ptr, ptr %5, align 8, !tbaa !10
  %7 = icmp eq ptr %6, null
  br i1 %7, label %_ZN8tinyxml27StrPair5ResetEv.exit, label %8

8:                                                ; preds = %4
  tail call void @_ZdaPv(ptr noundef nonnull %6) #30
  br label %_ZN8tinyxml27StrPair5ResetEv.exit

_ZN8tinyxml27StrPair5ResetEv.exit:                ; preds = %1, %4, %8
  store i32 0, ptr %0, align 8, !tbaa !3
  %9 = getelementptr inbounds nuw i8, ptr %0, i64 8
  tail call void @llvm.memset.p0.i64(ptr noundef nonnull align 8 dereferenceable(16) %9, i8 0, i64 16, i1 false)
  ret void
}